; Function Attrs: mustprogress nofree norecurse nosync nounwind willreturn memory(argmem: write) uwtable
define noundef nonnull align 4 dereferenceable(16) ptr @_ZN32pxrInternal_v0_24__pxrReserved__10GfMatrix2f11SetDiagonalEf(ptr noundef nonnull returned writeonly align 4 dereferenceable(16) initializes((0, 16)) %0, float noundef %1) local_unnamed_addr #5 align 2 {
  store float %1, ptr %0, align 4
  %3 = getelementptr inbounds nuw i8, ptr %0, i64 4
  store float 0.000000e+00, ptr %3, align 4
  %4 = getelementptr inbounds nuw i8, ptr %0, i64 8
  store float 0.000000e+00, ptr %4, align 4
  %5 = getelementptr inbounds nuw i8, ptr %0, i64 12
  store float %1, ptr %5, align 4
  ret ptr %0
}